target datalayout = "e-m:e-p270:32:32-p271:32:32-p272:64:64-i64:64-i128:128-f80:128-n8:16:32:64-S128"
target triple = "x86_64-pc-linux-gnu"

%struct._e_prefs = type { ptr, i32, %struct.color_t, %struct.color_t, %struct.color_t, %struct.color_t, %struct.color_t, %struct.color_t, %struct.color_t, i8, i32, ptr, i32, %struct.color_t, %struct.color_t, i32, %struct.color_t, %struct.color_t, i32, %struct.color_t, %struct.color_t, %struct.color_t, %struct.color_t, ptr, ptr, i8, i8, i8, i32, i32, i32, ptr, i32, ptr, i8, i8, i8, ptr, ptr, ptr, i32, i32, i32, i32, i8, i32, i32, i32, i32, i32, ptr, i8, i8, i8, i8, i8, ptr, ptr, ptr, ptr, ptr, ptr, ptr, ptr, ptr, i8, i8, i8, i8, i32, i8, i8, i8, ptr, i32, i8, i8, i32, i8, i8, i8, i32, i8, i32, i8, i8, i8, i32, i32, i32, ptr, i8, i8, i8, i8, i8, i8, i32, i32, i8, i8, i8, i8, i32, i32, i32, i32, i8, i8, i32, i8, i8, i32, i32, i8, i8, i8, i32, i8, i8, i8 }
%struct.color_t = type { i16, i16, i16 }
%struct._address = type { i32, i32, ptr, ptr }
%struct.conversation = type { ptr, ptr, ptr, i32, i32, i32, ptr, ptr, i32, ptr }
%struct._packet_info = type { ptr, ptr, i32, i32, %struct.nstime_t, %struct.nstime_t, %struct.nstime_t, i8, ptr, ptr, ptr, ptr, %struct._address, %struct._address, %struct._address, %struct._address, %struct._address, %struct._address, i32, ptr, i8, [3 x i8], %struct.anon.0, i32, i32, i32, i32, ptr, i8, ptr, ptr, i16, i16, i32, i32, i16, i32, i32, ptr, ptr, ptr, i8, i8, i16, i16, i16, i32, i16, i16, ptr, ptr, ptr, ptr, ptr, i32, i32 }
%struct.nstime_t = type { i64, i32 }
%struct.anon.0 = type { i8, [3 x i8] }
%struct.wtap_rec = type { i32, i32, i32, %struct.nstime_t, i32, %struct.nstime_t, i8, %union.anon.1, ptr, i8, %struct.Buffer, %struct.Buffer }
%union.anon.1 = type { %struct.wtap_packet_header }
%struct.wtap_packet_header = type { i32, i32, i32, i32, %union.wtap_pseudo_header }
%union.wtap_pseudo_header = type { %struct.erf_mc_phdr }
%struct.erf_mc_phdr = type { %struct.erf_phdr, [16 x %struct.erf_ehdr], %union.anon.4 }
%struct.erf_phdr = type { i64, i8, i8, i16, i16, i16 }
%struct.erf_ehdr = type { i64 }
%union.anon.4 = type { i32 }
%struct.Buffer = type { ptr, i64, i64, i64 }

@prefs = external global %struct._e_prefs, align 8

; Function Attrs: null_pointer_is_valid sspstrong uwtable
define ptr @find_conversation_deinterlacer_pinfo(ptr noundef %0) #0 {
  %2 = alloca ptr, align 8
  %3 = alloca ptr, align 8
  %4 = alloca i32, align 4
  %5 = alloca i32, align 4
  %6 = alloca i32, align 4
  store ptr %0, ptr %2, align 8
  call void @llvm.lifetime.start.p0(i64 8, ptr %3) #12
  store ptr null, ptr %3, align 8
  call void @llvm.lifetime.start.p0(i64 4, ptr %4) #12
  call void @llvm.lifetime.start.p0(i64 4, ptr %5) #12
  store i32 0, ptr %5, align 4
  call void @llvm.lifetime.start.p0(i64 4, ptr %6) #12
  store i32 0, ptr %6, align 4
  %7 = load i32, ptr getelementptr inbounds nuw (%struct._e_prefs, ptr @prefs, i32 0, i32 81), align 8
  %8 = icmp sgt i32 %7, 0
  br i1 %8, label %9, label %69

9:                                                ; preds = %1
  %10 = load i32, ptr getelementptr inbounds nuw (%struct._e_prefs, ptr @prefs, i32 0, i32 81), align 8
  %11 = and i32 %10, 2
  %12 = icmp ne i32 %11, 0
  br i1 %12, label %13, label %42

13:                                               ; preds = %9
  %14 = load ptr, ptr %2, align 8
  %15 = getelementptr inbounds nuw %struct._packet_info, ptr %14, i32 0, i32 10
  %16 = load ptr, ptr %15, align 8
  %17 = getelementptr inbounds nuw %struct.wtap_rec, ptr %16, i32 0, i32 1
  %18 = load i32, ptr %17, align 4
  %19 = and i32 %18, 4
  %20 = icmp ne i32 %19, 0
  br i1 %20, label %21, label %42

21:                                               ; preds = %13
  %22 = load i32, ptr getelementptr inbounds nuw (%struct._e_prefs, ptr @prefs, i32 0, i32 81), align 8
  %23 = and i32 %22, 8
  %24 = icmp ne i32 %23, 0
  br i1 %24, label %25, label %34

25:                                               ; preds = %21
  %26 = load ptr, ptr %2, align 8
  %27 = getelementptr inbounds nuw %struct._packet_info, ptr %26, i32 0, i32 18
  %28 = load i32, ptr %27, align 8
  %29 = icmp ugt i32 %28, 0
  br i1 %29, label %30, label %34

30:                                               ; preds = %25
  store i32 45, ptr %4, align 4
  %31 = load ptr, ptr %2, align 8
  %32 = getelementptr inbounds nuw %struct._packet_info, ptr %31, i32 0, i32 18
  %33 = load i32, ptr %32, align 8
  store i32 %33, ptr %6, align 4
  br label %35

34:                                               ; preds = %25, %21
  store i32 44, ptr %4, align 4
  br label %35

35:                                               ; preds = %34, %30
  %36 = load ptr, ptr %2, align 8
  %37 = getelementptr inbounds nuw %struct._packet_info, ptr %36, i32 0, i32 10
  %38 = load ptr, ptr %37, align 8
  %39 = getelementptr inbounds nuw %struct.wtap_rec, ptr %38, i32 0, i32 7
  %40 = getelementptr inbounds nuw %struct.wtap_packet_header, ptr %39, i32 0, i32 3
  %41 = load i32, ptr %40, align 4
  store i32 %41, ptr %5, align 4
  br label %57

42:                                               ; preds = %13, %9
  %43 = load i32, ptr getelementptr inbounds nuw (%struct._e_prefs, ptr @prefs, i32 0, i32 81), align 8
  %44 = and i32 %43, 8
  %45 = icmp ne i32 %44, 0
  br i1 %45, label %46, label %55

46:                                               ; preds = %42
  %47 = load ptr, ptr %2, align 8
  %48 = getelementptr inbounds nuw %struct._packet_info, ptr %47, i32 0, i32 18
  %49 = load i32, ptr %48, align 8
  %50 = icmp ugt i32 %49, 0
  br i1 %50, label %51, label %55

51:                                               ; preds = %46
  store i32 43, ptr %4, align 4
  %52 = load ptr, ptr %2, align 8
  %53 = getelementptr inbounds nuw %struct._packet_info, ptr %52, i32 0, i32 18
  %54 = load i32, ptr %53, align 8
  store i32 %54, ptr %6, align 4
  br label %56

55:                                               ; preds = %46, %42
  store i32 42, ptr %4, align 4
  br label %56

56:                                               ; preds = %55, %51
  br label %57

57:                                               ; preds = %56, %35
  %58 = load ptr, ptr %2, align 8
  %59 = getelementptr inbounds nuw %struct._packet_info, ptr %58, i32 0, i32 3
  %60 = load i32, ptr %59, align 4
  %61 = load ptr, ptr %2, align 8
  %62 = getelementptr inbounds nuw %struct._packet_info, ptr %61, i32 0, i32 12
  %63 = load ptr, ptr %2, align 8
  %64 = getelementptr inbounds nuw %struct._packet_info, ptr %63, i32 0, i32 13
  %65 = load i32, ptr %4, align 4
  %66 = load i32, ptr %5, align 4
  %67 = load i32, ptr %6, align 4
  %68 = call ptr @find_conversation_deinterlacer(i32 noundef %60, ptr noundef %62, ptr noundef %64, i32 noundef %65, i32 noundef %66, i32 noundef %67, i32 noundef 0)
  store ptr %68, ptr %3, align 8
  br label %69

69:                                               ; preds = %57, %1
  %70 = load ptr, ptr %3, align 8
  call void @llvm.lifetime.end.p0(i64 4, ptr %6) #12
  call void @llvm.lifetime.end.p0(i64 4, ptr %5) #12
  call void @llvm.lifetime.end.p0(i64 4, ptr %4) #12
  call void @llvm.lifetime.end.p0(i64 8, ptr %3) #12
  ret ptr %70
}

; Function Attrs: null_pointer_is_valid sspstrong uwtable
define ptr @conversation_new_strat(ptr noundef %0, i32 noundef %1, i32 noundef %2) #0 {
  %4 = alloca ptr, align 8
  %5 = alloca i32, align 4
  %6 = alloca i32, align 4
  %7 = alloca ptr, align 8
  %8 = alloca i8, align 1
  %9 = alloca ptr, align 8
  store ptr %0, ptr %4, align 8
  store i32 %1, ptr %5, align 4
  store i32 %2, ptr %6, align 4
  call void @llvm.lifetime.start.p0(i64 8, ptr %7) #12
  store ptr null, ptr %7, align 8
  call void @llvm.lifetime.start.p0(i64 1, ptr %8) #12
  store i8 1, ptr %8, align 1
  %10 = load ptr, ptr %4, align 8
  %11 = getelementptr inbounds nuw %struct._packet_info, ptr %10, i32 0, i32 9
  %12 = load ptr, ptr %11, align 8
  %13 = icmp ne ptr %12, null
  br i1 %13, label %14, label %51

14:                                               ; preds = %3
  %15 = load ptr, ptr %4, align 8
  %16 = getelementptr inbounds nuw %struct._packet_info, ptr %15, i32 0, i32 10
  %17 = load ptr, ptr %16, align 8
  %18 = getelementptr inbounds nuw %struct.wtap_rec, ptr %17, i32 0, i32 7
  %19 = getelementptr inbounds nuw %struct.wtap_packet_header, ptr %18, i32 0, i32 2
  %20 = load i32, ptr %19, align 8
  %21 = icmp eq i32 %20, 1
  br i1 %21, label %22, label %51

22:                                               ; preds = %14
  %23 = load i32, ptr getelementptr inbounds nuw (%struct._e_prefs, ptr @prefs, i32 0, i32 81), align 8
  %24 = icmp sgt i32 %23, 0
  br i1 %24, label %25, label %51

25:                                               ; preds = %22
  call void @llvm.lifetime.start.p0(i64 8, ptr %9) #12
  %26 = load ptr, ptr %4, align 8
  %27 = call ptr @find_conversation_deinterlacer_pinfo(ptr noundef %26)
  store ptr %27, ptr %9, align 8
  %28 = load ptr, ptr %9, align 8
  %29 = icmp ne ptr %28, null
  br i1 %29, label %30, label %50

30:                                               ; preds = %25
  store i8 0, ptr %8, align 1
  %31 = load ptr, ptr %4, align 8
  %32 = getelementptr inbounds nuw %struct._packet_info, ptr %31, i32 0, i32 3
  %33 = load i32, ptr %32, align 4
  %34 = load ptr, ptr %4, align 8
  %35 = getelementptr inbounds nuw %struct._packet_info, ptr %34, i32 0, i32 16
  %36 = load ptr, ptr %4, align 8
  %37 = getelementptr inbounds nuw %struct._packet_info, ptr %36, i32 0, i32 17
  %38 = load i32, ptr %5, align 4
  %39 = load ptr, ptr %4, align 8
  %40 = getelementptr inbounds nuw %struct._packet_info, ptr %39, i32 0, i32 24
  %41 = load i32, ptr %40, align 4
  %42 = load ptr, ptr %4, align 8
  %43 = getelementptr inbounds nuw %struct._packet_info, ptr %42, i32 0, i32 25
  %44 = load i32, ptr %43, align 8
  %45 = load ptr, ptr %9, align 8
  %46 = getelementptr inbounds nuw %struct.conversation, ptr %45, i32 0, i32 3
  %47 = load i32, ptr %46, align 8
  %48 = load i32, ptr %6, align 4
  %49 = call ptr @conversation_new_deinterlaced(i32 noundef %33, ptr noundef %35, ptr noundef %37, i32 noundef %38, i32 noundef %41, i32 noundef %44, i32 noundef %47, i32 noundef %48)
  store ptr %49, ptr %7, align 8
  br label %50

50:                                               ; preds = %30, %25
  call void @llvm.lifetime.end.p0(i64 8, ptr %9) #12
  br label %51

51:                                               ; preds = %50, %22, %14, %3
  %52 = load i8, ptr %8, align 1, !range !11, !noundef !12
  %53 = trunc i8 %52 to i1
  br i1 %53, label %54, label %71

54:                                               ; preds = %51
  %55 = load ptr, ptr %4, align 8
  %56 = getelementptr inbounds nuw %struct._packet_info, ptr %55, i32 0, i32 3
  %57 = load i32, ptr %56, align 4
  %58 = load ptr, ptr %4, align 8
  %59 = getelementptr inbounds nuw %struct._packet_info, ptr %58, i32 0, i32 16
  %60 = load ptr, ptr %4, align 8
  %61 = getelementptr inbounds nuw %struct._packet_info, ptr %60, i32 0, i32 17
  %62 = load i32, ptr %5, align 4
  %63 = load ptr, ptr %4, align 8
  %64 = getelementptr inbounds nuw %struct._packet_info, ptr %63, i32 0, i32 24
  %65 = load i32, ptr %64, align 4
  %66 = load ptr, ptr %4, align 8
  %67 = getelementptr inbounds nuw %struct._packet_info, ptr %66, i32 0, i32 25
  %68 = load i32, ptr %67, align 8
  %69 = load i32, ptr %6, align 4
  %70 = call ptr @conversation_new(i32 noundef %57, ptr noundef %59, ptr noundef %61, i32 noundef %62, i32 noundef %65, i32 noundef %68, i32 noundef %69)
  store ptr %70, ptr %7, align 8
  br label %71

71:                                               ; preds = %54, %51
  %72 = load ptr, ptr %7, align 8
  call void @llvm.lifetime.end.p0(i64 1, ptr %8) #12
  call void @llvm.lifetime.end.p0(i64 8, ptr %7) #12
  ret ptr %72
}