; Function Attrs: null_pointer_is_valid sspstrong uwtable
define noundef ptr @conversation_new_strat(ptr noundef captures(address_is_null) %0, i32 noundef %1, i32 noundef %2) local_unnamed_addr #0 {
  %4 = getelementptr inbounds nuw i8, ptr %0, i64 88
  %5 = load ptr, ptr %4, align 8
  %.not = icmp eq ptr %5, null
  br i1 %.not, label %51, label %6

6:                                                ; preds = %3
  %7 = getelementptr inbounds nuw i8, ptr %0, i64 96
  %8 = load ptr, ptr %7, align 8
  %9 = getelementptr inbounds nuw i8, ptr %8, i64 72
  %10 = load i32, ptr %9, align 8
  %11 = icmp eq i32 %10, 1
  %12 = load i32, ptr getelementptr inbounds nuw (i8, ptr @prefs, i64 392), align 8
  %13 = icmp sgt i32 %12, 0
  %or.cond = select i1 %11, i1 %13, i1 false
  br i1 %or.cond, label %14, label %51

14:                                               ; preds = %6
  %15 = and i32 %12, 2
  %.not.i = icmp eq i32 %15, 0
  br i1 %.not.i, label %29, label %16

16:                                               ; preds = %14
  %17 = getelementptr inbounds nuw i8, ptr %8, i64 4
  %18 = load i32, ptr %17, align 4
  %19 = and i32 %18, 4
  %.not19.i = icmp eq i32 %19, 0
  br i1 %.not19.i, label %29, label %20

20:                                               ; preds = %16
  %21 = and i32 %12, 8
  %.not22.i = icmp eq i32 %21, 0
  br i1 %.not22.i, label %25, label %22

22:                                               ; preds = %20
  %23 = getelementptr inbounds nuw i8, ptr %0, i64 256
  %24 = load i32, ptr %23, align 8
  %.not23.i = icmp eq i32 %24, 0
  br i1 %.not23.i, label %25, label %26

25:                                               ; preds = %22, %20
  br label %26

26:                                               ; preds = %25, %22
  %.013.i = phi i32 [ 44, %25 ], [ 45, %22 ]
  %.0.i = phi i32 [ 0, %25 ], [ %24, %22 ]
  %27 = getelementptr inbounds nuw i8, ptr %8, i64 76
  %28 = load i32, ptr %27, align 4
  br label %find_conversation_deinterlacer_pinfo.exit

29:                                               ; preds = %16, %14
  %30 = and i32 %12, 8
  %.not20.i = icmp eq i32 %30, 0
  br i1 %.not20.i, label %34, label %31

31:                                               ; preds = %29
  %32 = getelementptr inbounds nuw i8, ptr %0, i64 256
  %33 = load i32, ptr %32, align 8
  %.not21.i = icmp eq i32 %33, 0
  br i1 %.not21.i, label %34, label %find_conversation_deinterlacer_pinfo.exit

34:                                               ; preds = %31, %29
  br label %find_conversation_deinterlacer_pinfo.exit

find_conversation_deinterlacer_pinfo.exit:        ; preds = %26, %31, %34
  %.114.i = phi i32 [ %.013.i, %26 ], [ 42, %34 ], [ 43, %31 ]
  %.012.i = phi i32 [ %28, %26 ], [ 0, %34 ], [ 0, %31 ]
  %.1.i = phi i32 [ %.0.i, %26 ], [ 0, %34 ], [ %33, %31 ]
  %35 = getelementptr inbounds nuw i8, ptr %0, i64 20
  %36 = load i32, ptr %35, align 4
  %37 = getelementptr inbounds nuw i8, ptr %0, i64 112
  %38 = getelementptr inbounds nuw i8, ptr %0, i64 136
  %39 = tail call ptr @find_conversation_deinterlacer(i32 noundef %36, ptr noundef nonnull readonly %37, ptr noundef nonnull readonly %38, i32 noundef %.114.i, i32 noundef %.012.i, i32 noundef %.1.i, i32 noundef 0)
  %.not24 = icmp eq ptr %39, null
  br i1 %.not24, label %51, label %40

40:                                               ; preds = %find_conversation_deinterlacer_pinfo.exit
  %41 = load i32, ptr %35, align 4
  %42 = getelementptr inbounds nuw i8, ptr %0, i64 208
  %43 = getelementptr inbounds nuw i8, ptr %0, i64 232
  %44 = getelementptr inbounds nuw i8, ptr %0, i64 284
  %45 = load i32, ptr %44, align 4
  %46 = getelementptr inbounds nuw i8, ptr %0, i64 288
  %47 = load i32, ptr %46, align 8
  %48 = getelementptr inbounds nuw i8, ptr %39, i64 24
  %49 = load i32, ptr %48, align 8
  %50 = tail call ptr @conversation_new_deinterlaced(i32 noundef %41, ptr noundef nonnull %42, ptr noundef nonnull %43, i32 noundef %1, i32 noundef %45, i32 noundef %47, i32 noundef %49, i32 noundef %2)
  br label %61

51:                                               ; preds = %6, %3, %find_conversation_deinterlacer_pinfo.exit
  %52 = getelementptr inbounds nuw i8, ptr %0, i64 20
  %53 = load i32, ptr %52, align 4
  %54 = getelementptr inbounds nuw i8, ptr %0, i64 208
  %55 = getelementptr inbounds nuw i8, ptr %0, i64 232
  %56 = getelementptr inbounds nuw i8, ptr %0, i64 284
  %57 = load i32, ptr %56, align 4
  %58 = getelementptr inbounds nuw i8, ptr %0, i64 288
  %59 = load i32, ptr %58, align 8
  %60 = tail call ptr @conversation_new(i32 noundef %53, ptr noundef nonnull %54, ptr noundef nonnull %55, i32 noundef %1, i32 noundef %57, i32 noundef %59, i32 noundef %2)
  br label %61

61:                                               ; preds = %40, %51
  %.2 = phi ptr [ %60, %51 ], [ %50, %40 ]
  ret ptr %.2
}